; ModuleID = '52/1052.c'
source_filename = "52/1052.c"
target datalayout = "e-m:e-p270:32:32-p271:32:32-p272:64:64-i64:64-f80:128-n8:16:32:64-S128"
target triple = "x86_64-pc-linux-gnu"

@.str = private unnamed_addr constant [6 x i8] c"%d %d\00", align 1
@.str.1 = private unnamed_addr constant [3 x i8] c"%d\00", align 1
@.str.2 = private unnamed_addr constant [4 x i8] c" %d\00", align 1

; Function Attrs: noinline nounwind uwtable
define dso_local i32 @main() #0 {
  %1 = alloca i32, align 4
  %2 = alloca [1000 x i32], align 16
  %3 = alloca i32, align 4
  %4 = alloca i32, align 4
  %5 = alloca i32, align 4
  %6 = alloca i32, align 4
  %7 = alloca i32, align 4
  %8 = alloca i32, align 4
  %9 = alloca i32, align 4
  store i32 0, i32* %1, align 4
  store i32 0, i32* %9, align 4
  %10 = call i32 (i8*, ...) @__isoc99_scanf(i8* getelementptr inbounds ([6 x i8], [6 x i8]* @.str, i64 0, i64 0), i32* %4, i32* %3)
  store i32 0, i32* %5, align 4
  br label %11

11:                                               ; preds = %20, %0
  %12 = load i32, i32* %5, align 4
  %13 = load i32, i32* %4, align 4
  %14 = icmp slt i32 %12, %13
  br i1 %14, label %15, label %23

15:                                               ; preds = %11
  %16 = load i32, i32* %5, align 4
  %17 = sext i32 %16 to i64
  %18 = getelementptr inbounds [1000 x i32], [1000 x i32]* %2, i64 0, i64 %17
  %19 = call i32 (i8*, ...) @__isoc99_scanf(i8* getelementptr inbounds ([3 x i8], [3 x i8]* @.str.1, i64 0, i64 0), i32* %18)
  br label %20

20:                                               ; preds = %15
  %21 = load i32, i32* %5, align 4
  %22 = add nsw i32 %21, 1
  store i32 %22, i32* %5, align 4
  br label %11

23:                                               ; preds = %11
  %24 = getelementptr inbounds [1000 x i32], [1000 x i32]* %2, i64 0, i64 0
  %25 = load i32, i32* %24, align 16
  store i32 %25, i32* %6, align 4
  store i32 0, i32* %5, align 4
  br label %26

26:                                               ; preds = %57, %23
  %27 = load i32, i32* %9, align 4
  %28 = load i32, i32* %4, align 4
  %29 = icmp sle i32 %27, %28
  br i1 %29, label %30, label %61

30:                                               ; preds = %26
  %31 = load i32, i32* %5, align 4
  %32 = load i32, i32* %3, align 4
  %33 = add nsw i32 %31, %32
  store i32 %33, i32* %8, align 4
  %34 = load i32, i32* %8, align 4
  %35 = load i32, i32* %4, align 4
  %36 = sub nsw i32 %35, 1
  %37 = icmp sgt i32 %34, %36
  br i1 %37, label %38, label %45

38:                                               ; preds = %30
  %39 = load i32, i32* %8, align 4
  %40 = load i32, i32* %4, align 4
  %41 = sub nsw i32 %39, %40
  store i32 %41, i32* %8, align 4
  %42 = load i32, i32* %8, align 4
  %43 = load i32, i32* %3, align 4
  %44 = sub nsw i32 %42, %43
  store i32 %44, i32* %5, align 4
  br label %45

45:                                               ; preds = %38, %30
  %46 = load i32, i32* %8, align 4
  %47 = sext i32 %46 to i64
  %48 = getelementptr inbounds [1000 x i32], [1000 x i32]* %2, i64 0, i64 %47
  %49 = load i32, i32* %48, align 4
  store i32 %49, i32* %7, align 4
  %50 = load i32, i32* %6, align 4
  %51 = load i32, i32* %8, align 4
  %52 = sext i32 %51 to i64
  %53 = getelementptr inbounds [1000 x i32], [1000 x i32]* %2, i64 0, i64 %52
  store i32 %50, i32* %53, align 4
  %54 = load i32, i32* %7, align 4
  store i32 %54, i32* %6, align 4
  %55 = load i32, i32* %9, align 4
  %56 = add nsw i32 %55, 1
  store i32 %56, i32* %9, align 4
  br label %57

57:                                               ; preds = %45
  %58 = load i32, i32* %5, align 4
  %59 = load i32, i32* %3, align 4
  %60 = add nsw i32 %58, %59
  store i32 %60, i32* %5, align 4
  br label %26

61:                                               ; preds = %26
  %62 = getelementptr inbounds [1000 x i32], [1000 x i32]* %2, i64 0, i64 0
  %63 = load i32, i32* %62, align 16
  %64 = call i32 (i8*, ...) @printf(i8* getelementptr inbounds ([3 x i8], [3 x i8]* @.str.1, i64 0, i64 0), i32 %63)
  store i32 1, i32* %5, align 4
  br label %65

65:                                               ; preds = %75, %61
  %66 = load i32, i32* %5, align 4
  %67 = load i32, i32* %4, align 4
  %68 = icmp slt i32 %66, %67
  br i1 %68, label %69, label %78

69:                                               ; preds = %65
  %70 = load i32, i32* %5, align 4
  %71 = sext i32 %70 to i64
  %72 = getelementptr inbounds [1000 x i32], [1000 x i32]* %2, i64 0, i64 %71
  %73 = load i32, i32* %72, align 4
  %74 = call i32 (i8*, ...) @printf(i8* getelementptr inbounds ([4 x i8], [4 x i8]* @.str.2, i64 0, i64 0), i32 %73)
  br label %75

75:                                               ; preds = %69
  %76 = load i32, i32* %5, align 4
  %77 = add nsw i32 %76, 1
  store i32 %77, i32* %5, align 4
  br label %65

78:                                               ; preds = %65
  ret i32 0
}

declare dso_local i32 @__isoc99_scanf(i8*, ...) #1

declare dso_local i32 @printf(i8*, ...) #1


!llvm.module.flags = !{!0}
!llvm.ident = !{!1}

!0 = !{i32 1, !"wchar_size", i32 4}
!1 = !{!"clang version 10.0.0-4ubuntu1 "}
